target datalayout = "e-m:e-p270:32:32-p271:32:32-p272:64:64-i64:64-i128:128-f80:128-n8:16:32:64-S128"
target triple = "x86_64-pc-linux-gnu"

@.str.3 = private unnamed_addr constant [22 x i8] c"REPLAYGAIN_ALBUM_GAIN\00", align 1
@.str.4 = private unnamed_addr constant [22 x i8] c"REPLAYGAIN_ALBUM_PEAK\00", align 1
@.str.5 = private unnamed_addr constant [24 x i8] c"memory allocation error\00", align 1
@gain_format_ = internal global ptr @.str.10, align 8
@peak_format_ = internal global ptr @.str.11, align 8

; Function Attrs: nounwind sspstrong uwtable
define dso_local ptr @grabbag__replaygain_store_to_vorbiscomment_album(ptr noundef %0, float noundef %1, float noundef %2) #0 {
  %4 = alloca ptr, align 8
  %5 = alloca ptr, align 8
  %6 = alloca float, align 4
  %7 = alloca float, align 4
  store ptr %0, ptr %5, align 8, !tbaa !44
  store float %1, ptr %6, align 4, !tbaa !15
  store float %2, ptr %7, align 4, !tbaa !15
  %8 = load ptr, ptr %5, align 8, !tbaa !44
  %9 = call i32 @FLAC__metadata_object_vorbiscomment_remove_entries_matching(ptr noundef %8, ptr noundef @.str.3)
  %10 = icmp slt i32 %9, 0
  br i1 %10, label %15, label %11

11:                                               ; preds = %3
  %12 = load ptr, ptr %5, align 8, !tbaa !44
  %13 = call i32 @FLAC__metadata_object_vorbiscomment_remove_entries_matching(ptr noundef %12, ptr noundef @.str.4)
  %14 = icmp slt i32 %13, 0
  br i1 %14, label %15, label %16

15:                                               ; preds = %11, %3
  store ptr @.str.5, ptr %4, align 8
  br label %30

16:                                               ; preds = %11
  %17 = load ptr, ptr %5, align 8, !tbaa !44
  %18 = load ptr, ptr @gain_format_, align 8, !tbaa !28
  %19 = load float, ptr %6, align 4, !tbaa !15
  %20 = call i32 @append_tag_(ptr noundef %17, ptr noundef %18, ptr noundef @.str.3, float noundef %19)
  %21 = icmp ne i32 %20, 0
  br i1 %21, label %22, label %28

22:                                               ; preds = %16
  %23 = load ptr, ptr %5, align 8, !tbaa !44
  %24 = load ptr, ptr @peak_format_, align 8, !tbaa !28
  %25 = load float, ptr %7, align 4, !tbaa !15
  %26 = call i32 @append_tag_(ptr noundef %23, ptr noundef %24, ptr noundef @.str.4, float noundef %25)
  %27 = icmp ne i32 %26, 0
  br i1 %27, label %29, label %28

28:                                               ; preds = %22, %16
  store ptr @.str.5, ptr %4, align 8
  br label %30

29:                                               ; preds = %22
  store ptr null, ptr %4, align 8
  br label %30

30:                                               ; preds = %29, %28, %15
  %31 = load ptr, ptr %4, align 8
  ret ptr %31
}

; Function Attrs: nounwind sspstrong uwtable
define dso_local ptr @grabbag__replaygain_store_to_file_album(ptr noundef %0, float noundef %1, float noundef %2, i32 noundef %3) #0 {
  %5 = alloca ptr, align 8
  %6 = alloca ptr, align 8
  %7 = alloca float, align 4
  %8 = alloca float, align 4
  %9 = alloca i32, align 4
  %10 = alloca ptr, align 8
  %11 = alloca ptr, align 8
  %12 = alloca ptr, align 8
  %13 = alloca i32, align 4
  store ptr %0, ptr %6, align 8, !tbaa !28
  store float %1, ptr %7, align 4, !tbaa !15
  store float %2, ptr %8, align 4, !tbaa !15
  store i32 %3, ptr %9, align 4, !tbaa !4
  call void @llvm.lifetime.start.p0(i64 8, ptr %10) #8
  call void @llvm.lifetime.start.p0(i64 8, ptr %11) #8
  store ptr null, ptr %11, align 8, !tbaa !44
  call void @llvm.lifetime.start.p0(i64 8, ptr %12) #8
  %14 = load ptr, ptr %6, align 8, !tbaa !28
  %15 = call ptr @store_to_file_pre_(ptr noundef %14, ptr noundef %10, ptr noundef %11)
  store ptr %15, ptr %12, align 8, !tbaa !28
  %16 = icmp ne ptr null, %15
  br i1 %16, label %17, label %19

17:                                               ; preds = %4
  %18 = load ptr, ptr %12, align 8, !tbaa !28
  store ptr %18, ptr %5, align 8
  store i32 1, ptr %13, align 4
  br label %37

19:                                               ; preds = %4
  %20 = load ptr, ptr %11, align 8, !tbaa !44
  %21 = load float, ptr %7, align 4, !tbaa !15
  %22 = load float, ptr %8, align 4, !tbaa !15
  %23 = call ptr @grabbag__replaygain_store_to_vorbiscomment_album(ptr noundef %20, float noundef %21, float noundef %22)
  store ptr %23, ptr %12, align 8, !tbaa !28
  %24 = icmp ne ptr null, %23
  br i1 %24, label %25, label %28

25:                                               ; preds = %19
  %26 = load ptr, ptr %10, align 8, !tbaa !52
  call void @FLAC__metadata_chain_delete(ptr noundef %26)
  %27 = load ptr, ptr %12, align 8, !tbaa !28
  store ptr %27, ptr %5, align 8
  store i32 1, ptr %13, align 4
  br label %37

28:                                               ; preds = %19
  %29 = load ptr, ptr %6, align 8, !tbaa !28
  %30 = load ptr, ptr %10, align 8, !tbaa !52
  %31 = load i32, ptr %9, align 4, !tbaa !4
  %32 = call ptr @store_to_file_post_(ptr noundef %29, ptr noundef %30, i32 noundef %31)
  store ptr %32, ptr %12, align 8, !tbaa !28
  %33 = icmp ne ptr null, %32
  br i1 %33, label %34, label %36

34:                                               ; preds = %28
  %35 = load ptr, ptr %12, align 8, !tbaa !28
  store ptr %35, ptr %5, align 8
  store i32 1, ptr %13, align 4
  br label %37

36:                                               ; preds = %28
  store ptr null, ptr %5, align 8
  store i32 1, ptr %13, align 4
  br label %37

37:                                               ; preds = %36, %34, %25, %17
  call void @llvm.lifetime.end.p0(i64 8, ptr %12) #8
  call void @llvm.lifetime.end.p0(i64 8, ptr %11) #8
  call void @llvm.lifetime.end.p0(i64 8, ptr %10) #8
  %38 = load ptr, ptr %5, align 8
  ret ptr %38
}